target datalayout = "e-m:e-p270:32:32-p271:32:32-p272:64:64-i64:64-i128:128-f80:128-n8:16:32:64-S128"
target triple = "x86_64-pc-linux-gnu"

; Function Attrs: nounwind uwtable
define void @avio_print_string_array(ptr noundef %0, ptr noundef %1) #0 {
  %3 = alloca ptr, align 8
  %4 = alloca ptr, align 8
  store ptr %0, ptr %3, align 8, !tbaa !14
  store ptr %1, ptr %4, align 8, !tbaa !70
  br label %5

5:                                                ; preds = %17, %2
  %6 = load ptr, ptr %4, align 8, !tbaa !70
  %7 = load ptr, ptr %6, align 8, !tbaa !9
  %8 = icmp ne ptr %7, null
  br i1 %8, label %9, label %20

9:                                                ; preds = %5
  %10 = load ptr, ptr %3, align 8, !tbaa !14
  %11 = load ptr, ptr %4, align 8, !tbaa !70
  %12 = load ptr, ptr %11, align 8, !tbaa !9
  %13 = load ptr, ptr %4, align 8, !tbaa !70
  %14 = load ptr, ptr %13, align 8, !tbaa !9
  %15 = call i64 @strlen(ptr noundef %14) #13
  %16 = trunc i64 %15 to i32
  call void @avio_write(ptr noundef %10, ptr noundef %12, i32 noundef %16)
  br label %17

17:                                               ; preds = %9
  %18 = load ptr, ptr %4, align 8, !tbaa !70
  %19 = getelementptr inbounds nuw ptr, ptr %18, i32 1
  store ptr %19, ptr %4, align 8, !tbaa !70
  br label %5, !llvm.loop !97

20:                                               ; preds = %5
  ret void
}