; Function Attrs: nounwind uwtable
define void @avio_print_string_array(ptr noundef %0, ptr noundef readonly captures(none) %1) local_unnamed_addr #3 {
  %3 = load ptr, ptr %1, align 8, !tbaa !54
  %.not6 = icmp eq ptr %3, null
  br i1 %.not6, label %._crit_edge, label %.lr.ph

.lr.ph:                                           ; preds = %2, %.lr.ph
  %4 = phi ptr [ %8, %.lr.ph ], [ %3, %2 ]
  %.07 = phi ptr [ %7, %.lr.ph ], [ %1, %2 ]
  %5 = tail call i64 @strlen(ptr noundef nonnull dereferenceable(1) %4) #15
  %6 = trunc i64 %5 to i32
  tail call void @avio_write(ptr noundef %0, ptr noundef nonnull %4, i32 noundef %6)
  %7 = getelementptr inbounds nuw i8, ptr %.07, i64 8
  %8 = load ptr, ptr %7, align 8, !tbaa !54
  %.not = icmp eq ptr %8, null
  br i1 %.not, label %._crit_edge, label %.lr.ph, !llvm.loop !73

._crit_edge:                                      ; preds = %.lr.ph, %2
  ret void
}